; Function Attrs: mustprogress uwtable
define noundef i32 @_ZNK6casadi6Concat10sp_reverseEPPyS2_PxS1_(ptr noundef nonnull align 8 dereferenceable(64) %0, ptr nocapture noundef readonly %1, ptr nocapture noundef readonly %2, ptr nocapture readnone %3, ptr nocapture readnone %4) unnamed_addr #3 align 2 {
  %6 = load ptr, ptr %2, align 8
  %7 = tail call noundef i64 @_ZNK6casadi6MXNode5n_depEv(ptr noundef nonnull align 8 dereferenceable(64) %0)
  %8 = icmp sgt i64 %7, 0
  br i1 %8, label %.lr.ph22, label %._crit_edge23

.lr.ph22:                                         ; preds = %5
  %9 = getelementptr inbounds i8, ptr %0, i64 32
  %10 = getelementptr inbounds i8, ptr %0, i64 40
  br label %11

11:                                               ; preds = %.lr.ph22, %._crit_edge
  %.01320 = phi ptr [ %6, %.lr.ph22 ], [ %.1.lcssa, %._crit_edge ]
  %.01419 = phi i64 [ 0, %.lr.ph22 ], [ %31, %._crit_edge ]
  %12 = load ptr, ptr %10, align 8
  %13 = load ptr, ptr %9, align 8
  %14 = ptrtoint ptr %12 to i64
  %15 = ptrtoint ptr %13 to i64
  %16 = sub i64 %14, %15
  %17 = ashr exact i64 %16, 3
  %.not.i.i.i = icmp ugt i64 %17, %.01419
  br i1 %.not.i.i.i, label %_ZNK6casadi6MXNode3depEx.exit, label %18

18:                                               ; preds = %11
  tail call void (ptr, ...) @_ZSt24__throw_out_of_range_fmtPKcz(ptr noundef nonnull @.str.27, i64 noundef %.01419, i64 noundef %17) #19
  unreachable

_ZNK6casadi6MXNode3depEx.exit:                    ; preds = %11
  %19 = getelementptr inbounds %"class.casadi::MX", ptr %13, i64 %.01419
  %20 = tail call noundef nonnull align 8 dereferenceable(8) ptr @_ZNK6casadi2MX8sparsityEv(ptr noundef nonnull align 8 dereferenceable(8) %19)
  %21 = tail call noundef i64 @_ZNK6casadi8Sparsity3nnzEv(ptr noundef nonnull align 8 dereferenceable(8) %20)
  %22 = icmp sgt i64 %21, 0
  br i1 %22, label %.lr.ph.preheader, label %._crit_edge

.lr.ph.preheader:                                 ; preds = %_ZNK6casadi6MXNode3depEx.exit
  %23 = getelementptr inbounds ptr, ptr %1, i64 %.01419
  %24 = load ptr, ptr %23, align 8
  br label %.lr.ph

.lr.ph:                                           ; preds = %.lr.ph.preheader, %.lr.ph
  %.018 = phi i64 [ %30, %.lr.ph ], [ 0, %.lr.ph.preheader ]
  %.01217 = phi ptr [ %26, %.lr.ph ], [ %24, %.lr.ph.preheader ]
  %.116 = phi ptr [ %29, %.lr.ph ], [ %.01320, %.lr.ph.preheader ]
  %25 = load i64, ptr %.116, align 8
  %26 = getelementptr inbounds i8, ptr %.01217, i64 8
  %27 = load i64, ptr %.01217, align 8
  %28 = or i64 %27, %25
  store i64 %28, ptr %.01217, align 8
  %29 = getelementptr inbounds i8, ptr %.116, i64 8
  store i64 0, ptr %.116, align 8
  %30 = add nuw nsw i64 %.018, 1
  %exitcond.not = icmp eq i64 %30, %21
  br i1 %exitcond.not, label %._crit_edge, label %.lr.ph, !llvm.loop !9

._crit_edge:                                      ; preds = %.lr.ph, %_ZNK6casadi6MXNode3depEx.exit
  %.1.lcssa = phi ptr [ %.01320, %_ZNK6casadi6MXNode3depEx.exit ], [ %29, %.lr.ph ]
  %31 = add nuw nsw i64 %.01419, 1
  %32 = tail call noundef i64 @_ZNK6casadi6MXNode5n_depEv(ptr noundef nonnull align 8 dereferenceable(64) %0)
  %33 = icmp slt i64 %31, %32
  br i1 %33, label %11, label %._crit_edge23, !llvm.loop !10

._crit_edge23:                                    ; preds = %._crit_edge, %5
  ret i32 0
}